target datalayout = "e-m:e-p270:32:32-p271:32:32-p272:64:64-i64:64-i128:128-f80:128-n8:16:32:64-S128"
target triple = "x86_64-pc-linux-gnu"

; Function Attrs: inlinehint nounwind uwtable
define internal i64 @lean_usize_add(i64 noundef %0, i64 noundef %1) #1 {
  %3 = alloca i64, align 8
  %4 = alloca i64, align 8
  store i64 %0, ptr %3, align 8, !tbaa !8
  store i64 %1, ptr %4, align 8, !tbaa !8
  %5 = load i64, ptr %3, align 8, !tbaa !8
  %6 = load i64, ptr %4, align 8, !tbaa !8
  %7 = add i64 %5, %6
  ret i64 %7
}

; Function Attrs: inlinehint nounwind uwtable
define internal zeroext i8 @lean_usize_dec_eq(i64 noundef %0, i64 noundef %1) #1 {
  %3 = alloca i64, align 8
  %4 = alloca i64, align 8
  store i64 %0, ptr %3, align 8, !tbaa !8
  store i64 %1, ptr %4, align 8, !tbaa !8
  %5 = load i64, ptr %3, align 8, !tbaa !8
  %6 = load i64, ptr %4, align 8, !tbaa !8
  %7 = icmp eq i64 %5, %6
  %8 = zext i1 %7 to i32
  %9 = trunc i32 %8 to i8
  ret i8 %9
}

; Function Attrs: nounwind uwtable
define i64 @l_Array_foldlMUnsafe_fold___at___private_Lean_Data_Lsp_LanguageFeatures_0__Lean_Lsp_hashCompletionItem____x40_Lean_Data_Lsp_LanguageFeatures___hyg_2667____spec__1(i64 noundef %0, ptr noundef %1, i64 noundef %2, i64 noundef %3, i64 noundef %4) #2 {
  %6 = alloca i64, align 8
  %7 = alloca i64, align 8
  %8 = alloca ptr, align 8
  %9 = alloca i64, align 8
  %10 = alloca i64, align 8
  %11 = alloca i64, align 8
  %12 = alloca i8, align 1
  %13 = alloca i64, align 8
  %14 = alloca i64, align 8
  %15 = alloca i64, align 8
  %16 = alloca i32, align 4
  store i64 %0, ptr %7, align 8, !tbaa !8
  store ptr %1, ptr %8, align 8, !tbaa !4
  store i64 %2, ptr %9, align 8, !tbaa !8
  store i64 %3, ptr %10, align 8, !tbaa !8
  store i64 %4, ptr %11, align 8, !tbaa !8
  br label %17

17:                                               ; preds = %35, %5
  call void @llvm.lifetime.start.p0(i64 1, ptr %12) #7
  %18 = load i64, ptr %9, align 8, !tbaa !8
  %19 = load i64, ptr %10, align 8, !tbaa !8
  %20 = call zeroext i8 @lean_usize_dec_eq(i64 noundef %18, i64 noundef %19)
  store i8 %20, ptr %12, align 1, !tbaa !12
  %21 = load i8, ptr %12, align 1, !tbaa !12
  %22 = zext i8 %21 to i32
  %23 = icmp eq i32 %22, 0
  br i1 %23, label %24, label %33

24:                                               ; preds = %17
  call void @llvm.lifetime.start.p0(i64 8, ptr %13) #7
  call void @llvm.lifetime.start.p0(i64 8, ptr %14) #7
  call void @llvm.lifetime.start.p0(i64 8, ptr %15) #7
  %25 = load i64, ptr %11, align 8, !tbaa !8
  %26 = load i64, ptr %7, align 8, !tbaa !8
  %27 = call i64 @lean_uint64_mix_hash(i64 noundef %25, i64 noundef %26)
  store i64 %27, ptr %13, align 8, !tbaa !8
  store i64 1, ptr %14, align 8, !tbaa !8
  %28 = load i64, ptr %9, align 8, !tbaa !8
  %29 = load i64, ptr %14, align 8, !tbaa !8
  %30 = call i64 @lean_usize_add(i64 noundef %28, i64 noundef %29)
  store i64 %30, ptr %15, align 8, !tbaa !8
  %31 = load i64, ptr %15, align 8, !tbaa !8
  store i64 %31, ptr %9, align 8, !tbaa !8
  %32 = load i64, ptr %13, align 8, !tbaa !8
  store i64 %32, ptr %11, align 8, !tbaa !8
  store i32 2, ptr %16, align 4
  call void @llvm.lifetime.end.p0(i64 8, ptr %15) #7
  call void @llvm.lifetime.end.p0(i64 8, ptr %14) #7
  call void @llvm.lifetime.end.p0(i64 8, ptr %13) #7
  br label %35

33:                                               ; preds = %17
  %34 = load i64, ptr %11, align 8, !tbaa !8
  store i64 %34, ptr %6, align 8
  store i32 1, ptr %16, align 4
  br label %35

35:                                               ; preds = %33, %24
  call void @llvm.lifetime.end.p0(i64 1, ptr %12) #7
  %36 = load i32, ptr %16, align 4
  switch i32 %36, label %39 [
    i32 2, label %17
    i32 1, label %37
  ]

37:                                               ; preds = %35
  %38 = load i64, ptr %6, align 8
  ret i64 %38

39:                                               ; preds = %35
  unreachable
}