; Function Attrs: nounwind uwtable
define i64 @l_Array_foldlMUnsafe_fold___at___private_Lean_Data_Lsp_LanguageFeatures_0__Lean_Lsp_hashCompletionItem____x40_Lean_Data_Lsp_LanguageFeatures___hyg_2667____spec__1(i64 noundef %0, ptr noundef readnone captures(none) %1, i64 noundef %2, i64 noundef %3, i64 noundef %4) local_unnamed_addr #0 {
  %.not24 = icmp eq i64 %2, %3
  br i1 %.not24, label %._crit_edge, label %.lr.ph

.lr.ph:                                           ; preds = %5, %.lr.ph
  %.01326 = phi i64 [ %7, %.lr.ph ], [ %2, %5 ]
  %.01525 = phi i64 [ %6, %.lr.ph ], [ %4, %5 ]
  %6 = tail call i64 @lean_uint64_mix_hash(i64 noundef %.01525, i64 noundef %0) #9
  %7 = add i64 %.01326, 1
  %.not = icmp eq i64 %7, %3
  br i1 %.not, label %._crit_edge, label %.lr.ph

._crit_edge:                                      ; preds = %.lr.ph, %5
  %.015.lcssa = phi i64 [ %4, %5 ], [ %6, %.lr.ph ]
  ret i64 %.015.lcssa
}